target datalayout = "e-m:e-p270:32:32-p271:32:32-p272:64:64-i64:64-i128:128-f80:128-n8:16:32:64-S128"
target triple = "x86_64-pc-linux-gnu"

%struct.ReorderBuffer = type { ptr, %struct.dlist_head, %struct.dlist_head, %struct.dclist_head, i32, ptr, ptr, ptr, ptr, ptr, ptr, ptr, ptr, ptr, ptr, ptr, ptr, ptr, ptr, ptr, ptr, ptr, ptr, ptr, ptr, i8, ptr, ptr, ptr, ptr, i64, ptr, i64, i64, ptr, i64, i64, i64, i64, i64, i64, i64, i64 }
%struct.dlist_head = type { %struct.dlist_node }
%struct.dlist_node = type { ptr, ptr }
%struct.dclist_head = type { %struct.dlist_head, i32 }
%struct.ReorderBufferTXN = type { i32, i32, i32, ptr, i64, i64, i64, ptr, i64, i16, i64, %union.anon.4, ptr, i64, %struct.dlist_node, ptr, i32, i64, i64, %struct.dlist_head, %struct.dlist_head, i64, ptr, ptr, %struct.dlist_head, i32, i32, ptr, %struct.dlist_node, %struct.dlist_node, %struct.pairingheap_node, i64, i64, ptr }
%union.anon.4 = type { i64 }
%struct.pairingheap_node = type { ptr, ptr, ptr }
%struct.ReorderBufferChange = type { i64, i32, ptr, i16, %union.anon, %struct.dlist_node }
%union.anon = type { %struct.anon }
%struct.anon = type { %struct.RelFileLocator, i8, ptr, ptr }
%struct.RelFileLocator = type { i32, i32, i32 }
%struct.ItemPointerData = type { %struct.BlockIdData, i16 }
%struct.BlockIdData = type { i16, i16 }
%struct.anon.2 = type { %struct.RelFileLocator, %struct.ItemPointerData, i32, i32, i32 }

; Function Attrs: inlinehint nounwind uwtable
define internal void @dlist_init(ptr noundef %0) #4 {
  %2 = alloca ptr, align 8
  store ptr %0, ptr %2, align 8
  %3 = load ptr, ptr %2, align 8
  %4 = getelementptr inbounds nuw %struct.dlist_head, ptr %3, i32 0, i32 0
  %5 = load ptr, ptr %2, align 8
  %6 = getelementptr inbounds nuw %struct.dlist_head, ptr %5, i32 0, i32 0
  %7 = getelementptr inbounds nuw %struct.dlist_node, ptr %6, i32 0, i32 0
  store ptr %4, ptr %7, align 8
  %8 = load ptr, ptr %2, align 8
  %9 = getelementptr inbounds nuw %struct.dlist_head, ptr %8, i32 0, i32 0
  %10 = getelementptr inbounds nuw %struct.dlist_node, ptr %9, i32 0, i32 1
  store ptr %4, ptr %10, align 8
  ret void
}

; Function Attrs: inlinehint nounwind uwtable
define internal void @dlist_push_tail(ptr noundef %0, ptr noundef %1) #4 {
  %3 = alloca ptr, align 8
  %4 = alloca ptr, align 8
  store ptr %0, ptr %3, align 8
  store ptr %1, ptr %4, align 8
  %5 = load ptr, ptr %3, align 8
  %6 = getelementptr inbounds nuw %struct.dlist_head, ptr %5, i32 0, i32 0
  %7 = getelementptr inbounds nuw %struct.dlist_node, ptr %6, i32 0, i32 1
  %8 = load ptr, ptr %7, align 8
  %9 = icmp eq ptr %8, null
  br i1 %9, label %10, label %12

10:                                               ; preds = %2
  %11 = load ptr, ptr %3, align 8
  call void @dlist_init(ptr noundef %11)
  br label %12

12:                                               ; preds = %10, %2
  %13 = load ptr, ptr %3, align 8
  %14 = getelementptr inbounds nuw %struct.dlist_head, ptr %13, i32 0, i32 0
  %15 = load ptr, ptr %4, align 8
  %16 = getelementptr inbounds nuw %struct.dlist_node, ptr %15, i32 0, i32 1
  store ptr %14, ptr %16, align 8
  %17 = load ptr, ptr %3, align 8
  %18 = getelementptr inbounds nuw %struct.dlist_head, ptr %17, i32 0, i32 0
  %19 = getelementptr inbounds nuw %struct.dlist_node, ptr %18, i32 0, i32 0
  %20 = load ptr, ptr %19, align 8
  %21 = load ptr, ptr %4, align 8
  %22 = getelementptr inbounds nuw %struct.dlist_node, ptr %21, i32 0, i32 0
  store ptr %20, ptr %22, align 8
  %23 = load ptr, ptr %4, align 8
  %24 = load ptr, ptr %4, align 8
  %25 = getelementptr inbounds nuw %struct.dlist_node, ptr %24, i32 0, i32 0
  %26 = load ptr, ptr %25, align 8
  %27 = getelementptr inbounds nuw %struct.dlist_node, ptr %26, i32 0, i32 1
  store ptr %23, ptr %27, align 8
  %28 = load ptr, ptr %4, align 8
  %29 = load ptr, ptr %3, align 8
  %30 = getelementptr inbounds nuw %struct.dlist_head, ptr %29, i32 0, i32 0
  %31 = getelementptr inbounds nuw %struct.dlist_node, ptr %30, i32 0, i32 0
  store ptr %28, ptr %31, align 8
  ret void
}

; Function Attrs: nounwind uwtable
define dso_local ptr @ReorderBufferGetChange(ptr noundef %0) #0 {
  %2 = alloca ptr, align 8
  %3 = alloca ptr, align 8
  store ptr %0, ptr %2, align 8
  call void @llvm.lifetime.start.p0(i64 8, ptr %3) #13
  %4 = load ptr, ptr %2, align 8
  %5 = getelementptr inbounds nuw %struct.ReorderBuffer, ptr %4, i32 0, i32 27
  %6 = load ptr, ptr %5, align 8
  %7 = call ptr @MemoryContextAlloc(ptr noundef %6, i64 noundef 80)
  store ptr %7, ptr %3, align 8
  %8 = load ptr, ptr %3, align 8
  call void @llvm.memset.p0.i64(ptr align 8 %8, i8 0, i64 80, i1 false)
  %9 = load ptr, ptr %3, align 8
  call void @llvm.lifetime.end.p0(i64 8, ptr %3) #13
  ret ptr %9
}

; Function Attrs: nounwind uwtable
define dso_local void @ReorderBufferAddNewTupleCids(ptr noundef %0, i32 noundef %1, i64 noundef %2, i64 %3, i32 %4, i48 %5, i32 noundef %6, i32 noundef %7, i32 noundef %8) #0 {
  %10 = alloca %struct.RelFileLocator, align 4
  %11 = alloca { i64, i32 }, align 4
  %12 = alloca %struct.ItemPointerData, align 2
  %13 = alloca ptr, align 8
  %14 = alloca i32, align 4
  %15 = alloca i64, align 8
  %16 = alloca i32, align 4
  %17 = alloca i32, align 4
  %18 = alloca i32, align 4
  %19 = alloca ptr, align 8
  %20 = alloca ptr, align 8
  %21 = getelementptr inbounds nuw { i64, i32 }, ptr %11, i32 0, i32 0
  store i64 %3, ptr %21, align 4
  %22 = getelementptr inbounds nuw { i64, i32 }, ptr %11, i32 0, i32 1
  store i32 %4, ptr %22, align 4
  call void @llvm.memcpy.p0.p0.i64(ptr align 4 %10, ptr align 4 %11, i64 12, i1 false)
  store i48 %5, ptr %12, align 2
  store ptr %0, ptr %13, align 8
  store i32 %1, ptr %14, align 4
  store i64 %2, ptr %15, align 8
  store i32 %6, ptr %16, align 4
  store i32 %7, ptr %17, align 4
  store i32 %8, ptr %18, align 4
  call void @llvm.lifetime.start.p0(i64 8, ptr %19) #13
  %23 = load ptr, ptr %13, align 8
  %24 = call ptr @ReorderBufferGetChange(ptr noundef %23)
  store ptr %24, ptr %19, align 8
  call void @llvm.lifetime.start.p0(i64 8, ptr %20) #13
  %25 = load ptr, ptr %13, align 8
  %26 = load i32, ptr %14, align 4
  %27 = load i64, ptr %15, align 8
  %28 = call ptr @ReorderBufferTXNByXid(ptr noundef %25, i32 noundef %26, i1 noundef zeroext true, ptr noundef null, i64 noundef %27, i1 noundef zeroext true)
  store ptr %28, ptr %20, align 8
  %29 = load ptr, ptr %19, align 8
  %30 = getelementptr inbounds nuw %struct.ReorderBufferChange, ptr %29, i32 0, i32 4
  %31 = getelementptr inbounds nuw %struct.anon.2, ptr %30, i32 0, i32 0
  call void @llvm.memcpy.p0.p0.i64(ptr align 8 %31, ptr align 4 %10, i64 12, i1 false)
  %32 = load ptr, ptr %19, align 8
  %33 = getelementptr inbounds nuw %struct.ReorderBufferChange, ptr %32, i32 0, i32 4
  %34 = getelementptr inbounds nuw %struct.anon.2, ptr %33, i32 0, i32 1
  call void @llvm.memcpy.p0.p0.i64(ptr align 4 %34, ptr align 2 %12, i64 6, i1 false)
  %35 = load i32, ptr %16, align 4
  %36 = load ptr, ptr %19, align 8
  %37 = getelementptr inbounds nuw %struct.ReorderBufferChange, ptr %36, i32 0, i32 4
  %38 = getelementptr inbounds nuw %struct.anon.2, ptr %37, i32 0, i32 2
  store i32 %35, ptr %38, align 4
  %39 = load i32, ptr %17, align 4
  %40 = load ptr, ptr %19, align 8
  %41 = getelementptr inbounds nuw %struct.ReorderBufferChange, ptr %40, i32 0, i32 4
  %42 = getelementptr inbounds nuw %struct.anon.2, ptr %41, i32 0, i32 3
  store i32 %39, ptr %42, align 8
  %43 = load i32, ptr %18, align 4
  %44 = load ptr, ptr %19, align 8
  %45 = getelementptr inbounds nuw %struct.ReorderBufferChange, ptr %44, i32 0, i32 4
  %46 = getelementptr inbounds nuw %struct.anon.2, ptr %45, i32 0, i32 4
  store i32 %43, ptr %46, align 4
  %47 = load i64, ptr %15, align 8
  %48 = load ptr, ptr %19, align 8
  %49 = getelementptr inbounds nuw %struct.ReorderBufferChange, ptr %48, i32 0, i32 0
  store i64 %47, ptr %49, align 8
  %50 = load ptr, ptr %20, align 8
  %51 = load ptr, ptr %19, align 8
  %52 = getelementptr inbounds nuw %struct.ReorderBufferChange, ptr %51, i32 0, i32 2
  store ptr %50, ptr %52, align 8
  %53 = load ptr, ptr %19, align 8
  %54 = getelementptr inbounds nuw %struct.ReorderBufferChange, ptr %53, i32 0, i32 1
  store i32 7, ptr %54, align 8
  %55 = load ptr, ptr %20, align 8
  %56 = getelementptr inbounds nuw %struct.ReorderBufferTXN, ptr %55, i32 0, i32 20
  %57 = load ptr, ptr %19, align 8
  %58 = getelementptr inbounds nuw %struct.ReorderBufferChange, ptr %57, i32 0, i32 5
  call void @dlist_push_tail(ptr noundef %56, ptr noundef %58)
  %59 = load ptr, ptr %20, align 8
  %60 = getelementptr inbounds nuw %struct.ReorderBufferTXN, ptr %59, i32 0, i32 21
  %61 = load i64, ptr %60, align 8
  %62 = add i64 %61, 1
  store i64 %62, ptr %60, align 8
  call void @llvm.lifetime.end.p0(i64 8, ptr %20) #13
  call void @llvm.lifetime.end.p0(i64 8, ptr %19) #13
  ret void
}