; Function Attrs: nounwind uwtable
define dso_local void @ReorderBufferAddNewTupleCids(ptr noundef %0, i32 noundef %1, i64 noundef %2, i64 %3, i32 %4, i48 %5, i32 noundef %6, i32 noundef %7, i32 noundef %8) local_unnamed_addr #0 {
  %10 = getelementptr inbounds nuw i8, ptr %0, i64 248
  %11 = load ptr, ptr %10, align 8
  %12 = tail call noundef ptr @MemoryContextAlloc(ptr noundef %11, i64 noundef 80) #19
  tail call void @llvm.memset.p0.i64(ptr noundef nonnull align 8 dereferenceable(80) %12, i8 0, i64 80, i1 false)
  %13 = tail call fastcc ptr @ReorderBufferTXNByXid(ptr noundef %0, i32 noundef %1, i1 noundef zeroext true, ptr noundef null, i64 noundef %2, i1 noundef zeroext true)
  %14 = getelementptr inbounds nuw i8, ptr %12, i64 32
  store i64 %3, ptr %14, align 8
  %.sroa.221.0..sroa_idx = getelementptr inbounds nuw i8, ptr %12, i64 40
  store i32 %4, ptr %.sroa.221.0..sroa_idx, align 8
  %15 = getelementptr inbounds nuw i8, ptr %12, i64 44
  store i48 %5, ptr %15, align 4
  %16 = getelementptr inbounds nuw i8, ptr %12, i64 52
  store i32 %6, ptr %16, align 4
  %17 = getelementptr inbounds nuw i8, ptr %12, i64 56
  store i32 %7, ptr %17, align 8
  %18 = getelementptr inbounds nuw i8, ptr %12, i64 60
  store i32 %8, ptr %18, align 4
  store i64 %2, ptr %12, align 8
  %19 = getelementptr inbounds nuw i8, ptr %12, i64 16
  store ptr %13, ptr %19, align 8
  %20 = getelementptr inbounds nuw i8, ptr %12, i64 8
  store i32 7, ptr %20, align 8
  %21 = getelementptr inbounds nuw i8, ptr %13, i64 168
  %22 = getelementptr inbounds nuw i8, ptr %13, i64 176
  %23 = load ptr, ptr %22, align 8
  %24 = icmp eq ptr %23, null
  br i1 %24, label %25, label %dlist_push_tail.exit

25:                                               ; preds = %9
  store ptr %21, ptr %21, align 8
  store ptr %21, ptr %22, align 8
  br label %dlist_push_tail.exit

dlist_push_tail.exit:                             ; preds = %9, %25
  %26 = getelementptr inbounds nuw i8, ptr %12, i64 64
  %27 = getelementptr inbounds nuw i8, ptr %12, i64 72
  store ptr %21, ptr %27, align 8
  %28 = load ptr, ptr %21, align 8
  store ptr %28, ptr %26, align 8
  %29 = getelementptr inbounds nuw i8, ptr %28, i64 8
  store ptr %26, ptr %29, align 8
  store ptr %26, ptr %21, align 8
  %30 = getelementptr inbounds nuw i8, ptr %13, i64 184
  %31 = load i64, ptr %30, align 8
  %32 = add i64 %31, 1
  store i64 %32, ptr %30, align 8
  ret void
}